target datalayout = "e-m:e-p270:32:32-p271:32:32-p272:64:64-i64:64-i128:128-f80:128-n8:16:32:64-S128"
target triple = "x86_64-pc-linux-gnu"

%struct.ImGuiContext = type { i8, i8, %struct.ImGuiIO, %struct.ImGuiPlatformIO, %struct.ImGuiStyle, ptr, float, float, float, float, %struct.ImDrawListSharedData, double, i32, i32, i32, i8, i8, i8, i8, i8, ptr, [16 x i8], %struct.ImVector.1, %struct.ImVector.1, i32, i32, %struct.ImVector.2, %struct.ImVector.2, %struct.ImVector.2, %struct.ImVector.3, %struct.ImGuiStorage, i32, %struct.ImVec2, i32, ptr, ptr, ptr, ptr, ptr, ptr, %struct.ImVec2, i32, i32, float, %struct.ImVec2, %struct.ImVec2, i32, i32, i32, i32, i32, float, float, i8, i8, i8, i32, i32, float, i8, i8, i8, i8, i8, i8, i8, i8, %struct.ImVec2, ptr, i32, i32, i8, i8, ptr, i32, float, double, double, double, %struct.ImBitArray, [154 x %struct.ImGuiKeyOwnerData], %struct.ImGuiKeyRoutingTable, i32, i8, i32, i32, i32, i32, %struct.ImGuiNextItemData, %struct.ImGuiLastItemData, %struct.ImGuiNextWindowData, i8, i32, %struct.ImVector.6, %struct.ImVector.7, %struct.ImVector.8, %struct.ImVector.9, %struct.ImVector.10, %struct.ImVector.11, %struct.ImVector.12, %struct.ImVector.12, %struct.ImVector.13, %struct.ImVector.14, ptr, i32, i32, i32, i32, i32, i32, i32, %struct.ImVector.9, i32, float, i32, i32, i32, i64, i8, i8, i8, i8, i8, i8, i8, %struct.ImGuiNavItemData, i8, i8, i8, i32, i32, i32, i32, i32, i32, %struct.ImRect, %struct.ImRect, i32, i32, i32, %struct.ImGuiNavItemData, %struct.ImGuiNavItemData, %struct.ImGuiNavItemData, %struct.ImGuiNavItemData, i32, i32, i32, i32, i8, i8, i32, i32, ptr, ptr, ptr, float, float, i8, i32, %struct.ImVec2, %struct.ImVec2, float, i8, i8, i8, i32, i32, i32, [4 x i8], %struct.ImGuiPayload, %struct.ImRect, %struct.ImRect, i32, i32, float, i32, i32, i32, i32, %struct.ImVector.15, [16 x i8], i32, %struct.ImVector.16, ptr, i32, i32, %struct.ImVector.17, %struct.ImPool, %struct.ImVector.19, %struct.ImVector.20, ptr, %struct.ImPool.21, %struct.ImVector.23, %struct.ImVector.24, %struct.ImGuiBoxSelectState, ptr, i32, %struct.ImVector.25, %struct.ImPool.26, i32, i32, float, float, i32, i32, i32, float, %struct.ImVec2, %struct.ImGuiInputTextState, %struct.ImGuiInputTextDeactivatedState, %struct.ImFont, i32, %struct.ImGuiDataTypeStorage, i32, i32, i32, i32, i32, float, float, i32, %struct.ImVec4, %struct.ImGuiComboPreviewData, %struct.ImRect, i8, i16, float, float, float, i8, i8, float, float, float, i16, i16, i16, ptr, %struct.ImVector.28, %struct.ImVector.30, %struct.ImGuiTypingSelectState, %struct.ImGuiPlatformImeData, %struct.ImGuiPlatformImeData, i8, float, %struct.ImGuiTextBuffer, %struct.ImVector.31, %struct.ImChunkStream, %struct.ImChunkStream.32, %struct.ImVector.33, i32, [10 x ptr], i8, i32, ptr, %struct.ImGuiTextBuffer, ptr, ptr, float, i8, i32, i32, i32, ptr, ptr, %struct.ImVec2, i8, i32, %struct.ImGuiErrorRecoveryState, ptr, i32, i32, %struct.ImGuiTextBuffer, %struct.ImGuiTextIndex, i32, i32, i8, i8, i8, i32, i8, i8, i8, i32, float, %struct.ImVec4, %struct.ImGuiMetricsConfig, %struct.ImGuiIDStackTool, %struct.ImGuiDebugAllocInfo, [60 x float], i32, i32, float, i32, i32, i32, %struct.ImVector.28, [64 x i8] }
%struct.ImGuiIO = type { i32, i32, %struct.ImVec2, float, float, ptr, ptr, ptr, ptr, float, i8, ptr, %struct.ImVec2, i8, i8, i8, i8, i8, i8, i8, i8, i8, i8, float, float, float, float, float, float, i8, i8, i8, i8, i8, i8, i8, i8, i8, i8, ptr, ptr, ptr, ptr, ptr, i8, i8, i8, i8, i8, i8, i8, float, i32, i32, i32, i32, %struct.ImVec2, ptr, %struct.ImVec2, [5 x i8], float, float, i32, i8, i8, i8, i8, i32, [154 x %struct.ImGuiKeyData], i8, %struct.ImVec2, [5 x %struct.ImVec2], [5 x double], [5 x i8], [5 x i8], [5 x i16], [5 x i16], [5 x i8], [5 x i8], [5 x i8], i8, i8, [5 x float], [5 x float], [5 x float], float, i8, i8, i8, i8, i16, %struct.ImVector }
%struct.ImGuiKeyData = type { i8, float, float, float }
%struct.ImVector = type { i32, i32, ptr }
%struct.ImGuiPlatformIO = type <{ ptr, ptr, ptr, ptr, ptr, ptr, ptr, i16, [6 x i8] }>
%struct.ImGuiStyle = type { float, float, %struct.ImVec2, float, float, %struct.ImVec2, %struct.ImVec2, i32, float, float, float, float, %struct.ImVec2, float, float, %struct.ImVec2, %struct.ImVec2, %struct.ImVec2, %struct.ImVec2, float, float, float, float, float, float, float, float, float, float, float, float, float, %struct.ImVec2, i32, %struct.ImVec2, %struct.ImVec2, float, %struct.ImVec2, %struct.ImVec2, %struct.ImVec2, %struct.ImVec2, float, i8, i8, i8, float, float, [56 x %struct.ImVec4], float, float, float, i32, i32 }
%struct.ImDrawListSharedData = type { %struct.ImVec2, ptr, float, float, float, float, %struct.ImVec4, i32, %struct.ImVector.0, [48 x %struct.ImVec2], float, [64 x i8], ptr }
%struct.ImVector.0 = type { i32, i32, ptr }
%struct.ImVector.1 = type { i32, i32, ptr }
%struct.ImVector.2 = type { i32, i32, ptr }
%struct.ImVector.3 = type { i32, i32, ptr }
%struct.ImGuiStorage = type { %struct.ImVector.4 }
%struct.ImVector.4 = type { i32, i32, ptr }
%struct.ImBitArray = type { [5 x i32] }
%struct.ImGuiKeyOwnerData = type <{ i32, i32, i8, i8, [2 x i8] }>
%struct.ImGuiKeyRoutingTable = type { [154 x i16], %struct.ImVector.5, %struct.ImVector.5 }
%struct.ImVector.5 = type { i32, i32, ptr }
%struct.ImGuiNextItemData = type <{ i32, i32, i32, [4 x i8], i64, float, i32, i32, i8, i8, %struct.ImGuiDataTypeStorage, [2 x i8], i32, [4 x i8] }>
%struct.ImGuiLastItemData = type { i32, i32, i32, %struct.ImRect, %struct.ImRect, %struct.ImRect, %struct.ImRect, i32 }
%struct.ImGuiNextWindowData = type { i32, i32, i32, i32, %struct.ImVec2, %struct.ImVec2, %struct.ImVec2, %struct.ImVec2, %struct.ImVec2, i32, i8, %struct.ImRect, ptr, ptr, float, %struct.ImVec2, i32 }
%struct.ImVector.6 = type { i32, i32, ptr }
%struct.ImVector.7 = type { i32, i32, ptr }
%struct.ImVector.8 = type { i32, i32, ptr }
%struct.ImVector.10 = type { i32, i32, ptr }
%struct.ImVector.11 = type { i32, i32, ptr }
%struct.ImVector.12 = type { i32, i32, ptr }
%struct.ImVector.13 = type { i32, i32, ptr }
%struct.ImVector.14 = type { i32, i32, ptr }
%struct.ImVector.9 = type { i32, i32, ptr }
%struct.ImGuiNavItemData = type { ptr, i32, i32, %struct.ImRect, i32, float, float, float, i64 }
%struct.ImGuiPayload = type <{ ptr, i32, i32, i32, i32, [33 x i8], i8, i8, [5 x i8] }>
%struct.ImVector.15 = type { i32, i32, ptr }
%struct.ImVector.16 = type { i32, i32, ptr }
%struct.ImVector.17 = type { i32, i32, ptr }
%struct.ImPool = type { %struct.ImVector.18, %struct.ImGuiStorage, i32, i32 }
%struct.ImVector.18 = type { i32, i32, ptr }
%struct.ImVector.19 = type { i32, i32, ptr }
%struct.ImVector.20 = type { i32, i32, ptr }
%struct.ImPool.21 = type { %struct.ImVector.22, %struct.ImGuiStorage, i32, i32 }
%struct.ImVector.22 = type { i32, i32, ptr }
%struct.ImVector.23 = type { i32, i32, ptr }
%struct.ImVector.24 = type { i32, i32, ptr }
%struct.ImGuiBoxSelectState = type <{ i32, i8, i8, i8, i8, i8, i16, i8, %struct.ImVec2, %struct.ImVec2, %struct.ImVec2, [4 x i8], ptr, i8, [3 x i8], %struct.ImRect, %struct.ImRect, %struct.ImRect, [4 x i8] }>
%struct.ImVector.25 = type { i32, i32, ptr }
%struct.ImPool.26 = type { %struct.ImVector.27, %struct.ImGuiStorage, i32, i32 }
%struct.ImVector.27 = type { i32, i32, ptr }
%struct.ImGuiInputTextState = type <{ ptr, ptr, i32, i32, %struct.ImVector.28, %struct.ImVector.28, %struct.ImVector.28, i32, %struct.ImVec2, float, i8, i8, i8, i8, i32, i8, [3 x i8], i32, i32, [4 x i8] }>
%struct.ImGuiInputTextDeactivatedState = type { i32, %struct.ImVector.28 }
%struct.ImFont = type <{ %struct.ImVector.19, float, float, %struct.ImVector, %struct.ImVector.29, ptr, ptr, ptr, i16, i16, i16, i16, float, float, i8, [3 x i8], float, float, float, i32, [2 x i8], [2 x i8] }>
%struct.ImVector.29 = type { i32, i32, ptr }
%struct.ImGuiDataTypeStorage = type { [8 x i8] }
%struct.ImGuiComboPreviewData = type { %struct.ImRect, %struct.ImVec2, %struct.ImVec2, %struct.ImVec2, float, i32 }
%struct.ImRect = type { %struct.ImVec2, %struct.ImVec2 }
%struct.ImVector.30 = type { i32, i32, ptr }
%struct.ImGuiTypingSelectState = type <{ %struct.ImGuiTypingSelectRequest, [64 x i8], i32, i32, float, i8, [3 x i8] }>
%struct.ImGuiTypingSelectRequest = type { i32, i32, ptr, i8, i8, i8 }
%struct.ImGuiPlatformImeData = type { i8, %struct.ImVec2, float }
%struct.ImVector.31 = type { i32, i32, ptr }
%struct.ImChunkStream = type { %struct.ImVector.28 }
%struct.ImChunkStream.32 = type { %struct.ImVector.28 }
%struct.ImVector.33 = type { i32, i32, ptr }
%struct.ImVec2 = type { float, float }
%struct.ImGuiErrorRecoveryState = type { i16, i16, i16, i16, i16, i16, i16, i16, i16, i16, i16 }
%struct.ImGuiTextBuffer = type { %struct.ImVector.28 }
%struct.ImGuiTextIndex = type <{ %struct.ImVector.10, i32, [4 x i8] }>
%struct.ImVec4 = type { float, float, float, float }
%struct.ImGuiMetricsConfig = type { i8, i8, i8, i8, i8, i8, i8, i8, i8, i32, i32, i32, i32 }
%struct.ImGuiIDStackTool = type { i32, i32, i32, %struct.ImVector.34, i8, float }
%struct.ImVector.34 = type { i32, i32, ptr }
%struct.ImGuiDebugAllocInfo = type { i32, i32, i16, [6 x %struct.ImGuiDebugAllocEntry] }
%struct.ImGuiDebugAllocEntry = type { i32, i16, i16 }
%struct.ImVector.28 = type { i32, i32, ptr }
%struct.ImGuiTableInstanceData = type { i32, float, float, float, i32, i32 }
%struct.ImGuiTable = type <{ i32, i32, ptr, ptr, %struct.ImSpan, %struct.ImSpan.41, %struct.ImSpan.42, ptr, ptr, ptr, i32, i32, i32, i32, i32, i32, i16, i16, float, float, float, float, float, float, i32, i32, [2 x i32], i32, i32, float, float, float, float, float, float, float, float, float, float, float, float, float, float, float, float, float, %struct.ImRect, %struct.ImRect, %struct.ImRect, %struct.ImRect, %struct.ImRect, %struct.ImRect, %struct.ImRect, %struct.ImRect, %struct.ImRect, ptr, ptr, %struct.ImGuiTextBuffer, ptr, %struct.ImGuiTableInstanceData, %struct.ImVector.43, %struct.ImGuiTableColumnSortSpecs, [4 x i8], %struct.ImVector.44, %struct.ImGuiTableSortSpecs, i16, i16, i16, i16, i16, i16, i16, i16, i16, i16, i16, i16, i16, i16, i16, i16, i16, i16, i16, i16, i16, i16, i16, i16, i16, i16, i16, i8, i8, i8, i8, i8, i8, i8, i8, i8, i8, i8, i8, i8, i8, i8, i8, i8, i8, i8, i8, [6 x i8] }>
%struct.ImSpan = type { ptr, ptr }
%struct.ImSpan.41 = type { ptr, ptr }
%struct.ImSpan.42 = type { ptr, ptr }
%struct.ImVector.43 = type { i32, i32, ptr }
%struct.ImGuiTableColumnSortSpecs = type <{ i32, i16, i16, i8, [3 x i8] }>
%struct.ImVector.44 = type { i32, i32, ptr }
%struct.ImGuiTableSortSpecs = type <{ ptr, i32, i8, [3 x i8] }>
%struct.ImGuiTableCellData = type { i32, i16 }

@GImGui = external global ptr, align 8

; Function Attrs: inlinehint mustprogress nounwind uwtable
define linkonce_odr dso_local noundef nonnull align 4 dereferenceable(8) ptr @_ZN6ImSpanI18ImGuiTableCellDataEixEi(ptr noundef nonnull align 8 dereferenceable(16) %0, i32 noundef %1) #4 comdat align 2 {
  %3 = alloca ptr, align 8
  %4 = alloca i32, align 4
  %5 = alloca ptr, align 8
  store ptr %0, ptr %3, align 8, !tbaa !394
  store i32 %1, ptr %4, align 4, !tbaa !4
  %6 = load ptr, ptr %3, align 8
  call void @llvm.lifetime.start.p0(i64 8, ptr %5) #8
  %7 = getelementptr inbounds nuw %struct.ImSpan.42, ptr %6, i32 0, i32 0
  %8 = load ptr, ptr %7, align 8, !tbaa !561
  %9 = load i32, ptr %4, align 4, !tbaa !4
  %10 = sext i32 %9 to i64
  %11 = getelementptr inbounds %struct.ImGuiTableCellData, ptr %8, i64 %10
  store ptr %11, ptr %5, align 8, !tbaa !506
  %12 = load ptr, ptr %5, align 8, !tbaa !506
  call void @llvm.lifetime.end.p0(i64 8, ptr %5) #8
  ret ptr %12
}

; Function Attrs: mustprogress uwtable
define dso_local void @_ZN5ImGui15TableSetBgColorEiji(i32 noundef %0, i32 noundef %1, i32 noundef %2) #0 {
  %4 = alloca i32, align 4
  %5 = alloca i32, align 4
  %6 = alloca i32, align 4
  %7 = alloca ptr, align 8
  %8 = alloca ptr, align 8
  %9 = alloca i32, align 4
  %10 = alloca ptr, align 8
  %11 = alloca i32, align 4
  store i32 %0, ptr %4, align 4, !tbaa !4
  store i32 %1, ptr %5, align 4, !tbaa !4
  store i32 %2, ptr %6, align 4, !tbaa !4
  call void @llvm.lifetime.start.p0(i64 8, ptr %7) #8
  %12 = load ptr, ptr @GImGui, align 8, !tbaa !8
  store ptr %12, ptr %7, align 8, !tbaa !8
  call void @llvm.lifetime.start.p0(i64 8, ptr %8) #8
  %13 = load ptr, ptr %7, align 8, !tbaa !8
  %14 = getelementptr inbounds nuw %struct.ImGuiContext, ptr %13, i32 0, i32 183
  %15 = load ptr, ptr %14, align 8, !tbaa !251
  store ptr %15, ptr %8, align 8, !tbaa !166
  %16 = load i32, ptr %5, align 4, !tbaa !4
  %17 = icmp eq i32 %16, 16777216
  br i1 %17, label %18, label %19

18:                                               ; preds = %3
  store i32 0, ptr %5, align 4, !tbaa !4
  br label %19

19:                                               ; preds = %18, %3
  %20 = load i32, ptr %4, align 4, !tbaa !4
  switch i32 %20, label %114 [
    i32 3, label %21
    i32 1, label %93
    i32 2, label %93
  ]

21:                                               ; preds = %19
  %22 = load ptr, ptr %8, align 8, !tbaa !166
  %23 = getelementptr inbounds nuw %struct.ImGuiTable, ptr %22, i32 0, i32 18
  %24 = load float, ptr %23, align 4, !tbaa !236
  %25 = load ptr, ptr %8, align 8, !tbaa !166
  %26 = getelementptr inbounds nuw %struct.ImGuiTable, ptr %25, i32 0, i32 49
  %27 = getelementptr inbounds nuw %struct.ImRect, ptr %26, i32 0, i32 1
  %28 = getelementptr inbounds nuw %struct.ImVec2, ptr %27, i32 0, i32 1
  %29 = load float, ptr %28, align 4, !tbaa !232
  %30 = fcmp ogt float %24, %29
  br i1 %30, label %31, label %32

31:                                               ; preds = %21
  store i32 1, ptr %9, align 4
  br label %116

32:                                               ; preds = %21
  %33 = load i32, ptr %6, align 4, !tbaa !4
  %34 = icmp eq i32 %33, -1
  br i1 %34, label %35, label %39

35:                                               ; preds = %32
  %36 = load ptr, ptr %8, align 8, !tbaa !166
  %37 = getelementptr inbounds nuw %struct.ImGuiTable, ptr %36, i32 0, i32 15
  %38 = load i32, ptr %37, align 4, !tbaa !229
  store i32 %38, ptr %6, align 4, !tbaa !4
  br label %39

39:                                               ; preds = %35, %32
  %40 = load ptr, ptr %8, align 8, !tbaa !166
  %41 = getelementptr inbounds nuw %struct.ImGuiTable, ptr %40, i32 0, i32 9
  %42 = load ptr, ptr %41, align 8, !tbaa !342
  %43 = load i32, ptr %6, align 4, !tbaa !4
  %44 = ashr i32 %43, 5
  %45 = sext i32 %44 to i64
  %46 = getelementptr inbounds i32, ptr %42, i64 %45
  %47 = load i32, ptr %46, align 4, !tbaa !4
  %48 = load i32, ptr %6, align 4, !tbaa !4
  %49 = and i32 %48, 31
  %50 = shl i32 1, %49
  %51 = and i32 %47, %50
  %52 = icmp ne i32 %51, 0
  br i1 %52, label %54, label %53

53:                                               ; preds = %39
  store i32 1, ptr %9, align 4
  br label %116

54:                                               ; preds = %39
  %55 = load ptr, ptr %8, align 8, !tbaa !166
  %56 = getelementptr inbounds nuw %struct.ImGuiTable, ptr %55, i32 0, i32 88
  %57 = load i16, ptr %56, align 2, !tbaa !505
  %58 = sext i16 %57 to i32
  %59 = icmp slt i32 %58, 0
  br i1 %59, label %73, label %60

60:                                               ; preds = %54
  %61 = load ptr, ptr %8, align 8, !tbaa !166
  %62 = getelementptr inbounds nuw %struct.ImGuiTable, ptr %61, i32 0, i32 6
  %63 = load ptr, ptr %8, align 8, !tbaa !166
  %64 = getelementptr inbounds nuw %struct.ImGuiTable, ptr %63, i32 0, i32 88
  %65 = load i16, ptr %64, align 2, !tbaa !505
  %66 = sext i16 %65 to i32
  %67 = call noundef nonnull align 4 dereferenceable(8) ptr @_ZN6ImSpanI18ImGuiTableCellDataEixEi(ptr noundef nonnull align 8 dereferenceable(16) %62, i32 noundef %66)
  %68 = getelementptr inbounds nuw %struct.ImGuiTableCellData, ptr %67, i32 0, i32 1
  %69 = load i16, ptr %68, align 4, !tbaa !507
  %70 = sext i16 %69 to i32
  %71 = load i32, ptr %6, align 4, !tbaa !4
  %72 = icmp ne i32 %70, %71
  br i1 %72, label %73, label %78

73:                                               ; preds = %60, %54
  %74 = load ptr, ptr %8, align 8, !tbaa !166
  %75 = getelementptr inbounds nuw %struct.ImGuiTable, ptr %74, i32 0, i32 88
  %76 = load i16, ptr %75, align 2, !tbaa !505
  %77 = add i16 %76, 1
  store i16 %77, ptr %75, align 2, !tbaa !505
  br label %78

78:                                               ; preds = %73, %60
  call void @llvm.lifetime.start.p0(i64 8, ptr %10) #8
  %79 = load ptr, ptr %8, align 8, !tbaa !166
  %80 = getelementptr inbounds nuw %struct.ImGuiTable, ptr %79, i32 0, i32 6
  %81 = load ptr, ptr %8, align 8, !tbaa !166
  %82 = getelementptr inbounds nuw %struct.ImGuiTable, ptr %81, i32 0, i32 88
  %83 = load i16, ptr %82, align 2, !tbaa !505
  %84 = sext i16 %83 to i32
  %85 = call noundef nonnull align 4 dereferenceable(8) ptr @_ZN6ImSpanI18ImGuiTableCellDataEixEi(ptr noundef nonnull align 8 dereferenceable(16) %80, i32 noundef %84)
  store ptr %85, ptr %10, align 8, !tbaa !506
  %86 = load i32, ptr %5, align 4, !tbaa !4
  %87 = load ptr, ptr %10, align 8, !tbaa !506
  %88 = getelementptr inbounds nuw %struct.ImGuiTableCellData, ptr %87, i32 0, i32 0
  store i32 %86, ptr %88, align 4, !tbaa !509
  %89 = load i32, ptr %6, align 4, !tbaa !4
  %90 = trunc i32 %89 to i16
  %91 = load ptr, ptr %10, align 8, !tbaa !506
  %92 = getelementptr inbounds nuw %struct.ImGuiTableCellData, ptr %91, i32 0, i32 1
  store i16 %90, ptr %92, align 4, !tbaa !507
  store i32 2, ptr %9, align 4
  call void @llvm.lifetime.end.p0(i64 8, ptr %10) #8
  br label %115

93:                                               ; preds = %19, %19
  %94 = load ptr, ptr %8, align 8, !tbaa !166
  %95 = getelementptr inbounds nuw %struct.ImGuiTable, ptr %94, i32 0, i32 18
  %96 = load float, ptr %95, align 4, !tbaa !236
  %97 = load ptr, ptr %8, align 8, !tbaa !166
  %98 = getelementptr inbounds nuw %struct.ImGuiTable, ptr %97, i32 0, i32 49
  %99 = getelementptr inbounds nuw %struct.ImRect, ptr %98, i32 0, i32 1
  %100 = getelementptr inbounds nuw %struct.ImVec2, ptr %99, i32 0, i32 1
  %101 = load float, ptr %100, align 4, !tbaa !232
  %102 = fcmp ogt float %96, %101
  br i1 %102, label %103, label %104

103:                                              ; preds = %93
  store i32 1, ptr %9, align 4
  br label %116

104:                                              ; preds = %93
  call void @llvm.lifetime.start.p0(i64 4, ptr %11) #8
  %105 = load i32, ptr %4, align 4, !tbaa !4
  %106 = icmp eq i32 %105, 2
  %107 = select i1 %106, i32 1, i32 0
  store i32 %107, ptr %11, align 4, !tbaa !4
  %108 = load i32, ptr %5, align 4, !tbaa !4
  %109 = load ptr, ptr %8, align 8, !tbaa !166
  %110 = getelementptr inbounds nuw %struct.ImGuiTable, ptr %109, i32 0, i32 26
  %111 = load i32, ptr %11, align 4, !tbaa !4
  %112 = sext i32 %111 to i64
  %113 = getelementptr inbounds [2 x i32], ptr %110, i64 0, i64 %112
  store i32 %108, ptr %113, align 4, !tbaa !4
  store i32 2, ptr %9, align 4
  call void @llvm.lifetime.end.p0(i64 4, ptr %11) #8
  br label %115

114:                                              ; preds = %19
  br label %115

115:                                              ; preds = %114, %104, %78
  store i32 0, ptr %9, align 4
  br label %116

116:                                              ; preds = %115, %103, %53, %31
  call void @llvm.lifetime.end.p0(i64 8, ptr %8) #8
  call void @llvm.lifetime.end.p0(i64 8, ptr %7) #8
  %117 = load i32, ptr %9, align 4
  switch i32 %117, label %119 [
    i32 0, label %118
    i32 1, label %118
  ]

118:                                              ; preds = %116, %116
  ret void

119:                                              ; preds = %116
  unreachable
}